target datalayout = "e-m:e-p270:32:32-p271:32:32-p272:64:64-i64:64-i128:128-f80:128-n8:16:32:64-S128"
target triple = "x86_64-pc-linux-gnu"

%struct.archive_write = type { %struct.archive, i32, i64, i64, ptr, i64, ptr, ptr, ptr, ptr, ptr, i32, i32, ptr, ptr, ptr, ptr, ptr, ptr, ptr, ptr, ptr, ptr, ptr, ptr, ptr, ptr }
%struct.archive = type { i32, i32, ptr, i32, ptr, i32, i32, ptr, %struct.archive_string, ptr, i32, i32, ptr, ptr, i64, i64, i64, i8, i64 }
%struct.archive_string = type { ptr, i64, i64 }
%struct.shar = type { i32, i32, ptr, i32, ptr, [45 x i8], i64, i32, %struct.archive_string, %struct.archive_string }

; Function Attrs: nounwind uwtable
define internal i64 @archive_write_shar_data_uuencode(ptr noundef %0, ptr noundef %1, i64 noundef %2) #0 {
  %4 = alloca i64, align 8
  %5 = alloca ptr, align 8
  %6 = alloca ptr, align 8
  %7 = alloca i64, align 8
  %8 = alloca ptr, align 8
  %9 = alloca ptr, align 8
  %10 = alloca i64, align 8
  %11 = alloca i32, align 4
  %12 = alloca i32, align 4
  %13 = alloca i32, align 4
  %14 = alloca i32, align 4
  store ptr %0, ptr %5, align 8, !tbaa !9
  store ptr %1, ptr %6, align 8, !tbaa !50
  store i64 %2, ptr %7, align 8, !tbaa !51
  call void @llvm.lifetime.start.p0(i64 8, ptr %8) #7
  call void @llvm.lifetime.start.p0(i64 8, ptr %9) #7
  call void @llvm.lifetime.start.p0(i64 8, ptr %10) #7
  call void @llvm.lifetime.start.p0(i64 4, ptr %11) #7
  %15 = load ptr, ptr %5, align 8, !tbaa !9
  %16 = getelementptr inbounds nuw %struct.archive_write, ptr %15, i32 0, i32 15
  %17 = load ptr, ptr %16, align 8, !tbaa !32
  store ptr %17, ptr %8, align 8, !tbaa !22
  %18 = load ptr, ptr %8, align 8, !tbaa !22
  %19 = getelementptr inbounds nuw %struct.shar, ptr %18, i32 0, i32 3
  %20 = load i32, ptr %19, align 8, !tbaa !46
  %21 = icmp ne i32 %20, 0
  br i1 %21, label %23, label %22

22:                                               ; preds = %3
  store i64 0, ptr %4, align 8
  store i32 1, ptr %12, align 4
  br label %148

23:                                               ; preds = %3
  %24 = load ptr, ptr %6, align 8, !tbaa !50
  store ptr %24, ptr %9, align 8, !tbaa !43
  %25 = load ptr, ptr %8, align 8, !tbaa !22
  %26 = getelementptr inbounds nuw %struct.shar, ptr %25, i32 0, i32 6
  %27 = load i64, ptr %26, align 8, !tbaa !49
  %28 = icmp ne i64 %27, 0
  br i1 %28, label %29, label %85

29:                                               ; preds = %23
  %30 = load ptr, ptr %8, align 8, !tbaa !22
  %31 = getelementptr inbounds nuw %struct.shar, ptr %30, i32 0, i32 6
  %32 = load i64, ptr %31, align 8, !tbaa !49
  %33 = sub i64 45, %32
  store i64 %33, ptr %10, align 8, !tbaa !51
  %34 = load i64, ptr %10, align 8, !tbaa !51
  %35 = load i64, ptr %7, align 8, !tbaa !51
  %36 = icmp ugt i64 %34, %35
  br i1 %36, label %37, label %39

37:                                               ; preds = %29
  %38 = load i64, ptr %7, align 8, !tbaa !51
  store i64 %38, ptr %10, align 8, !tbaa !51
  br label %39

39:                                               ; preds = %37, %29
  %40 = load ptr, ptr %8, align 8, !tbaa !22
  %41 = getelementptr inbounds nuw %struct.shar, ptr %40, i32 0, i32 5
  %42 = getelementptr inbounds [45 x i8], ptr %41, i64 0, i64 0
  %43 = load ptr, ptr %8, align 8, !tbaa !22
  %44 = getelementptr inbounds nuw %struct.shar, ptr %43, i32 0, i32 6
  %45 = load i64, ptr %44, align 8, !tbaa !49
  %46 = getelementptr inbounds nuw i8, ptr %42, i64 %45
  %47 = load ptr, ptr %9, align 8, !tbaa !43
  %48 = load i64, ptr %10, align 8, !tbaa !51
  call void @llvm.memcpy.p0.p0.i64(ptr align 1 %46, ptr align 1 %47, i64 %48, i1 false)
  %49 = load ptr, ptr %8, align 8, !tbaa !22
  %50 = getelementptr inbounds nuw %struct.shar, ptr %49, i32 0, i32 6
  %51 = load i64, ptr %50, align 8, !tbaa !49
  %52 = load i64, ptr %10, align 8, !tbaa !51
  %53 = add i64 %51, %52
  %54 = icmp ult i64 %53, 45
  br i1 %54, label %55, label %62

55:                                               ; preds = %39
  %56 = load i64, ptr %10, align 8, !tbaa !51
  %57 = load ptr, ptr %8, align 8, !tbaa !22
  %58 = getelementptr inbounds nuw %struct.shar, ptr %57, i32 0, i32 6
  %59 = load i64, ptr %58, align 8, !tbaa !49
  %60 = add i64 %59, %56
  store i64 %60, ptr %58, align 8, !tbaa !49
  %61 = load i64, ptr %7, align 8, !tbaa !51
  store i64 %61, ptr %4, align 8
  store i32 1, ptr %12, align 4
  br label %148

62:                                               ; preds = %39
  br label %63

63:                                               ; preds = %62
  call void @llvm.lifetime.start.p0(i64 4, ptr %13) #7
  %64 = load ptr, ptr %5, align 8, !tbaa !9
  %65 = load ptr, ptr %8, align 8, !tbaa !22
  %66 = load ptr, ptr %8, align 8, !tbaa !22
  %67 = getelementptr inbounds nuw %struct.shar, ptr %66, i32 0, i32 5
  %68 = getelementptr inbounds [45 x i8], ptr %67, i64 0, i64 0
  %69 = call i32 @_uuencode_line(ptr noundef %64, ptr noundef %65, ptr noundef %68, i64 noundef 45)
  store i32 %69, ptr %13, align 4, !tbaa !11
  %70 = load i32, ptr %13, align 4, !tbaa !11
  %71 = icmp ne i32 %70, 0
  br i1 %71, label %72, label %73

72:                                               ; preds = %63
  store i64 -30, ptr %4, align 8
  store i32 1, ptr %12, align 4
  br label %74

73:                                               ; preds = %63
  store i32 0, ptr %12, align 4
  br label %74

74:                                               ; preds = %73, %72
  call void @llvm.lifetime.end.p0(i64 4, ptr %13) #7
  %75 = load i32, ptr %12, align 4
  switch i32 %75, label %148 [
    i32 0, label %76
  ]

76:                                               ; preds = %74
  br label %77

77:                                               ; preds = %76
  br label %78

78:                                               ; preds = %77
  %79 = load i64, ptr %10, align 8, !tbaa !51
  %80 = load ptr, ptr %9, align 8, !tbaa !43
  %81 = getelementptr inbounds nuw i8, ptr %80, i64 %79
  store ptr %81, ptr %9, align 8, !tbaa !43
  %82 = load i64, ptr %7, align 8, !tbaa !51
  %83 = load i64, ptr %10, align 8, !tbaa !51
  %84 = sub i64 %82, %83
  store i64 %84, ptr %10, align 8, !tbaa !51
  br label %87

85:                                               ; preds = %23
  %86 = load i64, ptr %7, align 8, !tbaa !51
  store i64 %86, ptr %10, align 8, !tbaa !51
  br label %87

87:                                               ; preds = %85, %78
  br label %88

88:                                               ; preds = %130, %115, %87
  %89 = load i64, ptr %10, align 8, !tbaa !51
  %90 = icmp uge i64 %89, 45
  br i1 %90, label %91, label %134

91:                                               ; preds = %88
  br label %92

92:                                               ; preds = %91
  call void @llvm.lifetime.start.p0(i64 4, ptr %14) #7
  %93 = load ptr, ptr %5, align 8, !tbaa !9
  %94 = load ptr, ptr %8, align 8, !tbaa !22
  %95 = load ptr, ptr %9, align 8, !tbaa !43
  %96 = call i32 @_uuencode_line(ptr noundef %93, ptr noundef %94, ptr noundef %95, i64 noundef 45)
  store i32 %96, ptr %14, align 4, !tbaa !11
  %97 = load i32, ptr %14, align 4, !tbaa !11
  %98 = icmp ne i32 %97, 0
  br i1 %98, label %99, label %100

99:                                               ; preds = %92
  store i64 -30, ptr %4, align 8
  store i32 1, ptr %12, align 4
  br label %101

100:                                              ; preds = %92
  store i32 0, ptr %12, align 4
  br label %101

101:                                              ; preds = %100, %99
  call void @llvm.lifetime.end.p0(i64 4, ptr %14) #7
  %102 = load i32, ptr %12, align 4
  switch i32 %102, label %148 [
    i32 0, label %103
  ]

103:                                              ; preds = %101
  br label %104

104:                                              ; preds = %103
  br label %105

105:                                              ; preds = %104
  %106 = load ptr, ptr %9, align 8, !tbaa !43
  %107 = getelementptr inbounds i8, ptr %106, i64 45
  store ptr %107, ptr %9, align 8, !tbaa !43
  %108 = load i64, ptr %10, align 8, !tbaa !51
  %109 = sub i64 %108, 45
  store i64 %109, ptr %10, align 8, !tbaa !51
  %110 = load ptr, ptr %8, align 8, !tbaa !22
  %111 = getelementptr inbounds nuw %struct.shar, ptr %110, i32 0, i32 8
  %112 = getelementptr inbounds nuw %struct.archive_string, ptr %111, i32 0, i32 1
  %113 = load i64, ptr %112, align 8, !tbaa !27
  %114 = icmp ult i64 %113, 65536
  br i1 %114, label %115, label %116

115:                                              ; preds = %105
  br label %88, !llvm.loop !54

116:                                              ; preds = %105
  %117 = load ptr, ptr %5, align 8, !tbaa !9
  %118 = load ptr, ptr %8, align 8, !tbaa !22
  %119 = getelementptr inbounds nuw %struct.shar, ptr %118, i32 0, i32 8
  %120 = getelementptr inbounds nuw %struct.archive_string, ptr %119, i32 0, i32 0
  %121 = load ptr, ptr %120, align 8, !tbaa !24
  %122 = load ptr, ptr %8, align 8, !tbaa !22
  %123 = getelementptr inbounds nuw %struct.shar, ptr %122, i32 0, i32 8
  %124 = getelementptr inbounds nuw %struct.archive_string, ptr %123, i32 0, i32 1
  %125 = load i64, ptr %124, align 8, !tbaa !27
  %126 = call i32 @__archive_write_output(ptr noundef %117, ptr noundef %121, i64 noundef %125)
  store i32 %126, ptr %11, align 4, !tbaa !11
  %127 = load i32, ptr %11, align 4, !tbaa !11
  %128 = icmp ne i32 %127, 0
  br i1 %128, label %129, label %130

129:                                              ; preds = %116
  store i64 -30, ptr %4, align 8
  store i32 1, ptr %12, align 4
  br label %148

130:                                              ; preds = %116
  %131 = load ptr, ptr %8, align 8, !tbaa !22
  %132 = getelementptr inbounds nuw %struct.shar, ptr %131, i32 0, i32 8
  %133 = getelementptr inbounds nuw %struct.archive_string, ptr %132, i32 0, i32 1
  store i64 0, ptr %133, align 8, !tbaa !27
  br label %88, !llvm.loop !54

134:                                              ; preds = %88
  %135 = load i64, ptr %10, align 8, !tbaa !51
  %136 = icmp ne i64 %135, 0
  br i1 %136, label %137, label %146

137:                                              ; preds = %134
  %138 = load ptr, ptr %8, align 8, !tbaa !22
  %139 = getelementptr inbounds nuw %struct.shar, ptr %138, i32 0, i32 5
  %140 = getelementptr inbounds [45 x i8], ptr %139, i64 0, i64 0
  %141 = load ptr, ptr %9, align 8, !tbaa !43
  %142 = load i64, ptr %10, align 8, !tbaa !51
  call void @llvm.memcpy.p0.p0.i64(ptr align 8 %140, ptr align 1 %141, i64 %142, i1 false)
  %143 = load i64, ptr %10, align 8, !tbaa !51
  %144 = load ptr, ptr %8, align 8, !tbaa !22
  %145 = getelementptr inbounds nuw %struct.shar, ptr %144, i32 0, i32 6
  store i64 %143, ptr %145, align 8, !tbaa !49
  br label %146

146:                                              ; preds = %137, %134
  %147 = load i64, ptr %7, align 8, !tbaa !51
  store i64 %147, ptr %4, align 8
  store i32 1, ptr %12, align 4
  br label %148

148:                                              ; preds = %146, %129, %101, %74, %55, %22
  call void @llvm.lifetime.end.p0(i64 4, ptr %11) #7
  call void @llvm.lifetime.end.p0(i64 8, ptr %10) #7
  call void @llvm.lifetime.end.p0(i64 8, ptr %9) #7
  call void @llvm.lifetime.end.p0(i64 8, ptr %8) #7
  %149 = load i64, ptr %4, align 8
  ret i64 %149
}