; Function Attrs: nounwind uwtable
define internal noundef i64 @archive_write_shar_data_uuencode(ptr noundef %0, ptr noundef readonly captures(none) %1, i64 noundef %2) #0 {
  %4 = getelementptr inbounds nuw i8, ptr %0, i64 248
  %5 = load ptr, ptr %4, align 8, !tbaa !17
  %6 = getelementptr inbounds nuw i8, ptr %5, i64 16
  %7 = load i32, ptr %6, align 8, !tbaa !35
  %.not = icmp eq i32 %7, 0
  br i1 %.not, label %.loopexit, label %8

8:                                                ; preds = %3
  %9 = getelementptr inbounds nuw i8, ptr %5, i64 80
  %10 = load i64, ptr %9, align 8, !tbaa !38
  %.not61 = icmp eq i64 %10, 0
  br i1 %.not61, label %23, label %11

11:                                               ; preds = %8
  %12 = sub i64 45, %10
  %spec.select = tail call i64 @llvm.umin.i64(i64 %12, i64 %2)
  %13 = getelementptr inbounds nuw i8, ptr %5, i64 32
  %14 = getelementptr inbounds nuw i8, ptr %13, i64 %10
  tail call void @llvm.memcpy.p0.p0.i64(ptr nonnull align 1 %14, ptr align 1 %1, i64 %spec.select, i1 false)
  %15 = load i64, ptr %9, align 8, !tbaa !38
  %16 = add i64 %15, %spec.select
  %17 = icmp ult i64 %16, 45
  br i1 %17, label %.loopexit.sink.split, label %18

18:                                               ; preds = %11
  %19 = tail call fastcc i32 @_uuencode_line(ptr noundef nonnull %0, ptr noundef nonnull %5, ptr noundef nonnull %13, i64 noundef 45)
  %.not62 = icmp eq i32 %19, 0
  br i1 %.not62, label %20, label %.loopexit

20:                                               ; preds = %18
  %21 = getelementptr inbounds nuw i8, ptr %1, i64 %spec.select
  %22 = sub i64 %2, %spec.select
  br label %23

23:                                               ; preds = %8, %20
  %.154 = phi i64 [ %22, %20 ], [ %2, %8 ]
  %.049 = phi ptr [ %21, %20 ], [ %1, %8 ]
  %24 = icmp ugt i64 %.154, 44
  br i1 %24, label %.lr.ph, label %._crit_edge

.lr.ph:                                           ; preds = %23
  %25 = getelementptr inbounds nuw i8, ptr %5, i64 104
  %26 = getelementptr inbounds nuw i8, ptr %5, i64 96
  br label %27

27:                                               ; preds = %.lr.ph, %.backedge
  %.15069 = phi ptr [ %.049, %.lr.ph ], [ %30, %.backedge ]
  %.25568 = phi i64 [ %.154, %.lr.ph ], [ %31, %.backedge ]
  %28 = tail call fastcc i32 @_uuencode_line(ptr noundef %0, ptr noundef nonnull %5, ptr noundef %.15069, i64 noundef 45)
  %.not64 = icmp eq i32 %28, 0
  br i1 %.not64, label %29, label %.loopexit

29:                                               ; preds = %27
  %30 = getelementptr inbounds nuw i8, ptr %.15069, i64 45
  %31 = add i64 %.25568, -45
  %32 = load i64, ptr %25, align 8, !tbaa !40
  %33 = icmp ult i64 %32, 65536
  br i1 %33, label %.backedge, label %34

34:                                               ; preds = %29
  %35 = load ptr, ptr %26, align 8, !tbaa !39
  %36 = tail call i32 @__archive_write_output(ptr noundef %0, ptr noundef %35, i64 noundef %32) #8
  %.not65 = icmp eq i32 %36, 0
  br i1 %.not65, label %37, label %.loopexit

37:                                               ; preds = %34
  store i64 0, ptr %25, align 8, !tbaa !40
  br label %.backedge

.backedge:                                        ; preds = %37, %29
  %38 = icmp ugt i64 %31, 44
  br i1 %38, label %27, label %._crit_edge, !llvm.loop !42

._crit_edge:                                      ; preds = %.backedge, %23
  %.255.lcssa = phi i64 [ %.154, %23 ], [ %31, %.backedge ]
  %.150.lcssa = phi ptr [ %.049, %23 ], [ %30, %.backedge ]
  %.not63 = icmp eq i64 %.255.lcssa, 0
  br i1 %.not63, label %.loopexit, label %39

39:                                               ; preds = %._crit_edge
  %40 = getelementptr inbounds nuw i8, ptr %5, i64 32
  tail call void @llvm.memcpy.p0.p0.i64(ptr nonnull align 8 %40, ptr align 1 %.150.lcssa, i64 %.255.lcssa, i1 false)
  br label %.loopexit.sink.split

.loopexit.sink.split:                             ; preds = %11, %39
  %.255.lcssa.sink = phi i64 [ %.255.lcssa, %39 ], [ %16, %11 ]
  store i64 %.255.lcssa.sink, ptr %9, align 8, !tbaa !38
  br label %.loopexit

.loopexit:                                        ; preds = %34, %27, %.loopexit.sink.split, %._crit_edge, %3, %18
  %.0 = phi i64 [ -30, %18 ], [ 0, %3 ], [ %2, %._crit_edge ], [ %2, %.loopexit.sink.split ], [ -30, %27 ], [ -30, %34 ]
  ret i64 %.0
}